; Function Attrs: nounwind uwtable
define noalias nonnull ptr @l_Std_Time_Duration_addSeconds(ptr noundef readonly captures(none) %0, ptr noundef %1) local_unnamed_addr #0 {
  %3 = getelementptr inbounds nuw i8, ptr %0, i64 8
  %4 = load ptr, ptr %3, align 8, !tbaa !4
  %5 = load ptr, ptr @l_Std_Time_Duration_ofNanoseconds___closed__1, align 8, !tbaa !4
  %6 = ptrtoint ptr %4 to i64
  %7 = and i64 %6, 1
  %.not.i31 = icmp eq i64 %7, 0
  br i1 %.not.i31, label %.critedge.i, label %8, !prof !8

8:                                                ; preds = %2
  %9 = ptrtoint ptr %5 to i64
  %10 = and i64 %9, 1
  %.not7.i = icmp eq i64 %10, 0
  br i1 %.not7.i, label %.critedge.i, label %11, !prof !8

11:                                               ; preds = %8
  %12 = shl i64 %6, 31
  %13 = ashr i64 %12, 32
  %14 = shl i64 %9, 31
  %15 = ashr i64 %14, 32
  %16 = mul nsw i64 %15, %13
  %17 = add nsw i64 %16, 2147483648
  %18 = icmp ult i64 %17, 4294967296
  br i1 %18, label %19, label %24, !prof !14

19:                                               ; preds = %11
  %20 = shl nsw i64 %16, 1
  %21 = and i64 %20, 8589934590
  %22 = or disjoint i64 %21, 1
  %23 = inttoptr i64 %22 to ptr
  br label %lean_int_mul.exit

24:                                               ; preds = %11
  %25 = tail call ptr @lean_big_int64_to_int(i64 noundef range(i64 -4611686016279904256, 4611686018427387905) %16) #3
  br label %lean_int_mul.exit

.critedge.i:                                      ; preds = %8, %2
  %26 = tail call ptr @lean_int_big_mul(ptr noundef %4, ptr noundef %5) #3
  br label %lean_int_mul.exit

lean_int_mul.exit:                                ; preds = %19, %24, %.critedge.i
  %.0.i = phi ptr [ %26, %.critedge.i ], [ %23, %19 ], [ %25, %24 ]
  %27 = getelementptr inbounds nuw i8, ptr %0, i64 16
  %28 = load ptr, ptr %27, align 8, !tbaa !4
  %29 = ptrtoint ptr %.0.i to i64
  %30 = and i64 %29, 1
  %.not.i32 = icmp eq i64 %30, 0
  br i1 %.not.i32, label %50, label %31, !prof !8

31:                                               ; preds = %lean_int_mul.exit
  %32 = ptrtoint ptr %28 to i64
  %33 = and i64 %32, 1
  %.not7.i33 = icmp eq i64 %33, 0
  br i1 %.not7.i33, label %lean_int_add.exit.thread53, label %35, !prof !8

lean_int_add.exit.thread53:                       ; preds = %31
  %34 = tail call ptr @lean_int_big_add(ptr noundef %.0.i, ptr noundef %28) #3
  br label %lean_dec.exit22

35:                                               ; preds = %31
  %36 = shl i64 %29, 31
  %37 = ashr i64 %36, 32
  %38 = shl i64 %32, 31
  %39 = ashr i64 %38, 32
  %40 = add nsw i64 %39, %37
  %41 = add nsw i64 %40, 2147483648
  %42 = icmp ult i64 %41, 4294967296
  br i1 %42, label %43, label %48, !prof !14

43:                                               ; preds = %35
  %44 = shl nsw i64 %40, 1
  %45 = and i64 %44, 8589934590
  %46 = or disjoint i64 %45, 1
  %47 = inttoptr i64 %46 to ptr
  br label %lean_dec.exit22

48:                                               ; preds = %35
  %49 = tail call ptr @lean_big_int64_to_int(i64 noundef range(i64 -4611686016279904256, 4611686018427387905) %40) #3
  br label %lean_dec.exit22

50:                                               ; preds = %lean_int_mul.exit
  %51 = tail call ptr @lean_int_big_add(ptr noundef %.0.i, ptr noundef %28) #3
  %52 = load i32, ptr %.0.i, align 4, !tbaa !9
  %53 = icmp sgt i32 %52, 1
  br i1 %53, label %54, label %56, !prof !14

54:                                               ; preds = %50
  %55 = add nsw i32 %52, -1
  store i32 %55, ptr %.0.i, align 4, !tbaa !9
  br label %lean_dec.exit22

56:                                               ; preds = %50
  %.not.i = icmp eq i32 %52, 0
  br i1 %.not.i, label %lean_dec.exit22, label %57

57:                                               ; preds = %56
  tail call void @lean_dec_ref_cold(ptr noundef nonnull %.0.i) #3
  br label %lean_dec.exit22

lean_dec.exit22:                                  ; preds = %48, %43, %57, %56, %54, %lean_int_add.exit.thread53
  %.0.i3452 = phi ptr [ %34, %lean_int_add.exit.thread53 ], [ %51, %54 ], [ %51, %56 ], [ %51, %57 ], [ %49, %48 ], [ %47, %43 ]
  %58 = ptrtoint ptr %1 to i64
  %59 = and i64 %58, 1
  %.not.i36 = icmp eq i64 %59, 0
  br i1 %.not.i36, label %.critedge.i39, label %60, !prof !8

60:                                               ; preds = %lean_dec.exit22
  %61 = ptrtoint ptr %5 to i64
  %62 = and i64 %61, 1
  %.not7.i37 = icmp eq i64 %62, 0
  br i1 %.not7.i37, label %.critedge.i39, label %63, !prof !8

63:                                               ; preds = %60
  %64 = shl i64 %58, 31
  %65 = ashr i64 %64, 32
  %66 = shl i64 %61, 31
  %67 = ashr i64 %66, 32
  %68 = mul nsw i64 %67, %65
  %69 = add nsw i64 %68, 2147483648
  %70 = icmp ult i64 %69, 4294967296
  br i1 %70, label %71, label %76, !prof !14

71:                                               ; preds = %63
  %72 = shl nsw i64 %68, 1
  %73 = and i64 %72, 8589934590
  %74 = or disjoint i64 %73, 1
  %75 = inttoptr i64 %74 to ptr
  br label %lean_int_mul.exit40

76:                                               ; preds = %63
  %77 = tail call ptr @lean_big_int64_to_int(i64 noundef range(i64 -4611686016279904256, 4611686018427387905) %68) #3
  br label %lean_int_mul.exit40

.critedge.i39:                                    ; preds = %60, %lean_dec.exit22
  %78 = tail call ptr @lean_int_big_mul(ptr noundef %1, ptr noundef %5) #3
  br label %lean_int_mul.exit40

lean_int_mul.exit40:                              ; preds = %71, %76, %.critedge.i39
  %.0.i38 = phi ptr [ %78, %.critedge.i39 ], [ %75, %71 ], [ %77, %76 ]
  %79 = load ptr, ptr @l___private_Std_Time_Duration_0__Std_Time_reprDuration____x40_Std_Time_Duration___hyg_295____closed__8, align 8, !tbaa !4
  %80 = ptrtoint ptr %.0.i38 to i64
  %81 = and i64 %80, 1
  %.not.i41 = icmp eq i64 %81, 0
  br i1 %.not.i41, label %101, label %82, !prof !8

82:                                               ; preds = %lean_int_mul.exit40
  %83 = ptrtoint ptr %79 to i64
  %84 = and i64 %83, 1
  %.not7.i42 = icmp eq i64 %84, 0
  br i1 %.not7.i42, label %lean_int_add.exit45.thread56, label %86, !prof !8

lean_int_add.exit45.thread56:                     ; preds = %82
  %85 = tail call ptr @lean_int_big_add(ptr noundef %.0.i38, ptr noundef %79) #3
  br label %lean_dec.exit21

86:                                               ; preds = %82
  %87 = shl i64 %80, 31
  %88 = ashr i64 %87, 32
  %89 = shl i64 %83, 31
  %90 = ashr i64 %89, 32
  %91 = add nsw i64 %90, %88
  %92 = add nsw i64 %91, 2147483648
  %93 = icmp ult i64 %92, 4294967296
  br i1 %93, label %94, label %99, !prof !14

94:                                               ; preds = %86
  %95 = shl nsw i64 %91, 1
  %96 = and i64 %95, 8589934590
  %97 = or disjoint i64 %96, 1
  %98 = inttoptr i64 %97 to ptr
  br label %lean_dec.exit21

99:                                               ; preds = %86
  %100 = tail call ptr @lean_big_int64_to_int(i64 noundef range(i64 -4611686016279904256, 4611686018427387905) %91) #3
  br label %lean_dec.exit21

101:                                              ; preds = %lean_int_mul.exit40
  %102 = tail call ptr @lean_int_big_add(ptr noundef %.0.i38, ptr noundef %79) #3
  %103 = load i32, ptr %.0.i38, align 4, !tbaa !9
  %104 = icmp sgt i32 %103, 1
  br i1 %104, label %105, label %107, !prof !14

105:                                              ; preds = %101
  %106 = add nsw i32 %103, -1
  store i32 %106, ptr %.0.i38, align 4, !tbaa !9
  br label %lean_dec.exit21

107:                                              ; preds = %101
  %.not.i23 = icmp eq i32 %103, 0
  br i1 %.not.i23, label %lean_dec.exit21, label %108

108:                                              ; preds = %107
  tail call void @lean_dec_ref_cold(ptr noundef nonnull %.0.i38) #3
  br label %lean_dec.exit21

lean_dec.exit21:                                  ; preds = %99, %94, %108, %107, %105, %lean_int_add.exit45.thread56
  %.0.i4355 = phi ptr [ %85, %lean_int_add.exit45.thread56 ], [ %102, %105 ], [ %102, %107 ], [ %102, %108 ], [ %100, %99 ], [ %98, %94 ]
  %109 = ptrtoint ptr %.0.i3452 to i64
  %110 = and i64 %109, 1
  %.not.i46 = icmp eq i64 %110, 0
  %.pre61 = ptrtoint ptr %.0.i4355 to i64
  %.pre = and i64 %.pre61, 1
  %111 = icmp eq i64 %.pre, 0
  br i1 %.not.i46, label %lean_int_add.exit50, label %112, !prof !8

112:                                              ; preds = %lean_dec.exit21
  br i1 %111, label %lean_int_add.exit50.thread65, label %114, !prof !8

lean_int_add.exit50.thread65:                     ; preds = %112
  %113 = tail call ptr @lean_int_big_add(ptr noundef %.0.i3452, ptr noundef %.0.i4355) #3
  br label %130

114:                                              ; preds = %112
  %115 = shl i64 %109, 31
  %116 = ashr i64 %115, 32
  %117 = shl i64 %.pre61, 31
  %118 = ashr i64 %117, 32
  %119 = add nsw i64 %118, %116
  %120 = add nsw i64 %119, 2147483648
  %121 = icmp ult i64 %120, 4294967296
  br i1 %121, label %122, label %127, !prof !14

122:                                              ; preds = %114
  %123 = shl nsw i64 %119, 1
  %124 = and i64 %123, 8589934590
  %125 = or disjoint i64 %124, 1
  %126 = inttoptr i64 %125 to ptr
  br label %lean_dec.exit19

127:                                              ; preds = %114
  %128 = tail call ptr @lean_big_int64_to_int(i64 noundef range(i64 -4611686016279904256, 4611686018427387905) %119) #3
  br label %lean_dec.exit19

lean_int_add.exit50:                              ; preds = %lean_dec.exit21
  %129 = tail call ptr @lean_int_big_add(ptr noundef %.0.i3452, ptr noundef %.0.i4355) #3
  br i1 %111, label %130, label %lean_dec.exit20.thread

130:                                              ; preds = %lean_int_add.exit50.thread65, %lean_int_add.exit50
  %131 = phi ptr [ %113, %lean_int_add.exit50.thread65 ], [ %129, %lean_int_add.exit50 ]
  %132 = load i32, ptr %.0.i4355, align 4, !tbaa !9
  %133 = icmp sgt i32 %132, 1
  br i1 %133, label %134, label %136, !prof !14

134:                                              ; preds = %130
  %135 = add nsw i32 %132, -1
  store i32 %135, ptr %.0.i4355, align 4, !tbaa !9
  br label %lean_dec.exit20

136:                                              ; preds = %130
  %.not.i25 = icmp eq i32 %132, 0
  br i1 %.not.i25, label %lean_dec.exit20, label %137

137:                                              ; preds = %136
  tail call void @lean_dec_ref_cold(ptr noundef nonnull %.0.i4355) #3
  br label %lean_dec.exit20

lean_dec.exit20:                                  ; preds = %137, %136, %134
  br i1 %.not.i46, label %lean_dec.exit20.thread, label %lean_dec.exit19

lean_dec.exit20.thread:                           ; preds = %lean_int_add.exit50, %lean_dec.exit20
  %.0.i486469 = phi ptr [ %131, %lean_dec.exit20 ], [ %129, %lean_int_add.exit50 ]
  %138 = load i32, ptr %.0.i3452, align 4, !tbaa !9
  %139 = icmp sgt i32 %138, 1
  br i1 %139, label %140, label %142, !prof !14

140:                                              ; preds = %lean_dec.exit20.thread
  %141 = add nsw i32 %138, -1
  store i32 %141, ptr %.0.i3452, align 4, !tbaa !9
  br label %lean_dec.exit19

142:                                              ; preds = %lean_dec.exit20.thread
  %.not.i27 = icmp eq i32 %138, 0
  br i1 %.not.i27, label %lean_dec.exit19, label %143

143:                                              ; preds = %142
  tail call void @lean_dec_ref_cold(ptr noundef nonnull %.0.i3452) #3
  br label %lean_dec.exit19

lean_dec.exit19:                                  ; preds = %122, %127, %143, %142, %140, %lean_dec.exit20
  %.0.i486468 = phi ptr [ %.0.i486469, %143 ], [ %.0.i486469, %142 ], [ %.0.i486469, %140 ], [ %131, %lean_dec.exit20 ], [ %128, %127 ], [ %126, %122 ]
  %144 = tail call ptr @l_Std_Time_Duration_ofNanoseconds(ptr noundef %.0.i486468)
  %145 = ptrtoint ptr %.0.i486468 to i64
  %146 = and i64 %145, 1
  %.not58 = icmp eq i64 %146, 0
  br i1 %.not58, label %147, label %lean_dec.exit

147:                                              ; preds = %lean_dec.exit19
  %148 = load i32, ptr %.0.i486468, align 4, !tbaa !9
  %149 = icmp sgt i32 %148, 1
  br i1 %149, label %150, label %152, !prof !14

150:                                              ; preds = %147
  %151 = add nsw i32 %148, -1
  store i32 %151, ptr %.0.i486468, align 4, !tbaa !9
  br label %lean_dec.exit

152:                                              ; preds = %147
  %.not.i29 = icmp eq i32 %148, 0
  br i1 %.not.i29, label %lean_dec.exit, label %153

153:                                              ; preds = %152
  tail call void @lean_dec_ref_cold(ptr noundef nonnull %.0.i486468) #3
  br label %lean_dec.exit

lean_dec.exit:                                    ; preds = %153, %152, %150, %lean_dec.exit19
  ret ptr %144
}